 0000                   cpu LMM
                        .module main.c
                        .area text(rom, con, rel)
 0000                   .dbfile ./main.c
                        .area lit(rom, con, rel, lit)
 0000           L2:
 0000 524F424954544920312E3000  .byte 'R,'O,'B,'I,'T,'T,'I,32,49,46,48,0
 000C           L3:
 000C 457465656E21202020202000  .byte 'E,'t,'e,'e,'n,33,32,32,32,32,32,0
 0018           L4:
 0018 5461616B7365212020202000  .byte 'T,'a,'a,'k,'s,'e,33,32,32,32,32,0
 0024           L5:
 0024 534549532120202020202000  .byte 'S,'E,'I,'S,33,32,32,32,32,32,32,0
 0030           L6:
 0030 4F696B65616C6C6521202000  .byte 'O,'i,'k,'e,'a,'l,'l,'e,33,32,32,0
 003C           L7:
 003C 566173656D6D616C6C652100  .byte 'V,'a,'s,'e,'m,'m,'a,'l,'l,'e,33,0
                        .area text(rom, con, rel)
 0000                   .dbfile ./main.c
 0000                   .dbfile C:\Users\Eetu\Dropbox\Opiskelu\Robitti\OHJELM~1\ROBITT~1\ROBITT~1\ROBITT~1\main.c
 0000                   .dbfunc e main _main fV
 0000           ;        theStr6 -> X+62
 0000           ;        theStr5 -> X+50
 0000           ;        theStr3 -> X+38
 0000           ;        theStr2 -> X+26
 0000           ;        theStr1 -> X+14
 0000           ;        theStr4 -> X+2
 0000           ;              i -> X+0
 0000           _main::
 0000                   .dbline -1
 0000 10                push X
 0001 4F                mov X,SP
 0002 384A              add SP,74
 0004                   .dbline 8
 0004           ; #include <m8c.h>        // part specific constants and macros
 0004           ; #include "PSoCAPI.h"    // PSoC API definitions for all User Modules
 0004           ; #include <stdio.h>
 0004           ; 
 0004           ; 
 0004           ; 
 0004           ; void main(void)
 0004           ; {
 0004                   .dbline 10
 0004           ;       int i;
 0004           ;       char theStr1[] = "ROBITTI 1.0";
 0004 62D000            mov REG[0xd0],>__r0
 0007 550000            mov [__r1],<L2
 000A 550000            mov [__r0],>L2
 000D 5A00              mov [__r3],X
 000F 06000E            add [__r3],14
 0012 62D507            mov REG[0xd5],7
 0015 10                push X
 0016 550000            mov [__rX],0
 0019 5100              mov A,[__r0]
 001B 5800              mov X,[__r1]
 001D           X1:
 001D 08                push A
 001E 28                romx
 001F 62D000            mov REG[0xd0],>__r0
 0022 3F00              mvi [__r3],A
 0024 18                pop A
 0025 75                inc X
 0026 0900              adc A,0
 0028 7600              inc [__rX]
 002A 3C000C            cmp [__rX],12
 002D BFEF              jnz X1
 002F 20                pop X
 0030                   .dbline 11
 0030           ;       char theStr2[] = "Eteen!     ";
 0030 55000C            mov [__r1],<L3
 0033 55000C            mov [__r0],>L3
 0036 5A00              mov [__r3],X
 0038 06001A            add [__r3],26
 003B 62D507            mov REG[0xd5],7
 003E 10                push X
 003F 550000            mov [__rX],0
 0042 5100              mov A,[__r0]
 0044 5800              mov X,[__r1]
 0046           X2:
 0046 08                push A
 0047 28                romx
 0048 62D000            mov REG[0xd0],>__r0
 004B 3F00              mvi [__r3],A
 004D 18                pop A
 004E 75                inc X
 004F 0900              adc A,0
 0051 7600              inc [__rX]
 0053 3C000C            cmp [__rX],12
 0056 BFEF              jnz X2
 0058 20                pop X
 0059                   .dbline 12
 0059           ;       char theStr3[] = "Taakse!    ";
 0059 550018            mov [__r1],<L4
 005C 550018            mov [__r0],>L4
 005F 5A00              mov [__r3],X
 0061 060026            add [__r3],38
 0064 62D507            mov REG[0xd5],7
 0067 10                push X
 0068 550000            mov [__rX],0
 006B 5100              mov A,[__r0]
 006D 5800              mov X,[__r1]
 006F           X3:
 006F 08                push A
 0070 28                romx
 0071 62D000            mov REG[0xd0],>__r0
 0074 3F00              mvi [__r3],A
 0076 18                pop A
 0077 75                inc X
 0078 0900              adc A,0
 007A 7600              inc [__rX]
 007C 3C000C            cmp [__rX],12
 007F BFEF              jnz X3
 0081 20                pop X
 0082                   .dbline 13
 0082           ;       char theStr4[] = "SEIS!      ";
 0082 550024            mov [__r1],<L5
 0085 550024            mov [__r0],>L5
 0088 5A00              mov [__r3],X
 008A 060002            add [__r3],2
 008D 62D507            mov REG[0xd5],7
 0090 10                push X
 0091 550000            mov [__rX],0
 0094 5100              mov A,[__r0]
 0096 5800              mov X,[__r1]
 0098           X4:
 0098 08                push A
 0099 28                romx
 009A 62D000            mov REG[0xd0],>__r0
 009D 3F00              mvi [__r3],A
 009F 18                pop A
 00A0 75                inc X
 00A1 0900              adc A,0
 00A3 7600              inc [__rX]
 00A5 3C000C            cmp [__rX],12
 00A8 BFEF              jnz X4
 00AA 20                pop X
 00AB                   .dbline 14
 00AB           ;       char theStr5[] = "Oikealle!  ";
 00AB 550030            mov [__r1],<L6
 00AE 550030            mov [__r0],>L6
 00B1 5A00              mov [__r3],X
 00B3 060032            add [__r3],50
 00B6 62D507            mov REG[0xd5],7
 00B9 10                push X
 00BA 550000            mov [__rX],0
 00BD 5100              mov A,[__r0]
 00BF 5800              mov X,[__r1]
 00C1           X5:
 00C1 08                push A
 00C2 28                romx
 00C3 62D000            mov REG[0xd0],>__r0
 00C6 3F00              mvi [__r3],A
 00C8 18                pop A
 00C9 75                inc X
 00CA 0900              adc A,0
 00CC 7600              inc [__rX]
 00CE 3C000C            cmp [__rX],12
 00D1 BFEF              jnz X5
 00D3 20                pop X
 00D4                   .dbline 15
 00D4           ;       char theStr6[] = "Vasemmalle!";
 00D4 55003C            mov [__r1],<L7
 00D7 55003C            mov [__r0],>L7
 00DA 5A00              mov [__r3],X
 00DC 06003E            add [__r3],62
 00DF 62D507            mov REG[0xd5],7
 00E2 10                push X
 00E3 550000            mov [__rX],0
 00E6 5100              mov A,[__r0]
 00E8 5800              mov X,[__r1]
 00EA           X6:
 00EA 08                push A
 00EB 28                romx
 00EC 62D000            mov REG[0xd0],>__r0
 00EF 3F00              mvi [__r3],A
 00F1 18                pop A
 00F2 75                inc X
 00F3 0900              adc A,0
 00F5 7600              inc [__rX]
 00F7 3C000C            cmp [__rX],12
 00FA BFEF              jnz X6
 00FC                   .dbline 16
 00FC           ;    LCD_Start();                  // LCD käynttöönotto
 00FC 7C0000            xcall _LCD_Start
 00FF                   .dbline 17
 00FF           ;    LCD_Position(0,3);            // Place LCD cursor at row 0, col 5.
 00FF 5703              mov X,3
 0101 5000              mov A,0
 0103 7C0000            xcall _LCD_Position
 0106 20                pop X
 0107                   .dbline 18
 0107           ;    LCD_PrString(theStr1);        //Tulosta teksti 1
 0107 62D000            mov REG[0xd0],>__r0
 010A 5A00              mov [__r1],X
 010C 06000E            add [__r1],14
 010F 10                push X
 0110 5007              mov A,7
 0112 08                push A
 0113 5100              mov A,[__r1]
 0115 5C                mov X,A
 0116 18                pop A
 0117 7C0000            xcall _LCD_PrString
 011A                   .dbline 22
 011A           ; 
 011A           ;       
 011A           ;       //Ohjaimien starttaukset..
 011A           ;       VME_Start();
 011A 7C0000            xcall _VME_Start
 011D                   .dbline 23
 011D           ;       OME_Start();
 011D 7C0000            xcall _OME_Start
 0120                   .dbline 24
 0120           ;       VMT_Start();
 0120 7C0000            xcall _VMT_Start
 0123                   .dbline 25
 0123           ;       OMT_Start();
 0123 7C0000            xcall _OMT_Start
 0126                   .dbline 28
 0126           ;       
 0126           ;       //Eteenpäin
 0126           ;       VME_Switch(1);         // Turn on VasenMoottoriEteen
 0126 5001              mov A,1
 0128 7C0000            xcall _VME_Switch
 012B                   .dbline 29
 012B           ;       OME_Switch(1);         // Turn on OikeaMoottoriEteen
 012B 5001              mov A,1
 012D 7C0000            xcall _OME_Switch
 0130                   .dbline 31
 0130           ;       
 0130           ;       LCD_Position(1,3);
 0130 5703              mov X,3
 0132 5001              mov A,1
 0134 7C0000            xcall _LCD_Position
 0137 20                pop X
 0138                   .dbline 32
 0138           ;       LCD_PrString(theStr2);         //Tulosta teksti 2
 0138 62D000            mov REG[0xd0],>__r0
 013B 5A00              mov [__r1],X
 013D 06001A            add [__r1],26
 0140 10                push X
 0141 5007              mov A,7
 0143 08                push A
 0144 5100              mov A,[__r1]
 0146 5C                mov X,A
 0147 18                pop A
 0148 7C0000            xcall _LCD_PrString
 014B 20                pop X
 014C                   .dbline 34
 014C           ;       
 014C           ;       for (i=0;i<30000;i++);
 014C 560100            mov [X+1],0
 014F 560000            mov [X+0],0
 0152           L8:
 0152                   .dbline 34
 0152           L9:
 0152                   .dbline 34
 0152 7701              inc [X+1]
 0154 0F0000            adc [X+0],0
 0157                   .dbline 34
 0157 5201              mov A,[X+1]
 0159 1130              sub A,48
 015B 5200              mov A,[X+0]
 015D 3180              xor A,-128
 015F 19F5              sbb A,(117 ^ 0x80)
 0161 CFF0              jc L8
 0163           X7:
 0163                   .dbline 35
 0163           ;       VME_Switch(0);            // Turn off VasenMoottoriEteen
 0163 10                push X
 0164 5000              mov A,0
 0166 7C0000            xcall _VME_Switch
 0169                   .dbline 36
 0169           ;       OME_Switch(0);            // Turn off OikeaMoottoriEteen
 0169 5000              mov A,0
 016B 7C0000            xcall _OME_Switch
 016E 20                pop X
 016F                   .dbline 38
 016F           ;       
 016F           ;       for (i=0;i<30000;i++); //Tauko välissä
 016F 560100            mov [X+1],0
 0172 560000            mov [X+0],0
 0175           L12:
 0175                   .dbline 38
 0175           L13:
 0175                   .dbline 38
 0175 7701              inc [X+1]
 0177 0F0000            adc [X+0],0
 017A                   .dbline 38
 017A 5201              mov A,[X+1]
 017C 1130              sub A,48
 017E 5200              mov A,[X+0]
 0180 3180              xor A,-128
 0182 19F5              sbb A,(117 ^ 0x80)
 0184 CFF0              jc L12
 0186           X8:
 0186                   .dbline 39
 0186           ;       LCD_Position(1,3);
 0186 10                push X
 0187 5703              mov X,3
 0189 5001              mov A,1
 018B 7C0000            xcall _LCD_Position
 018E 20                pop X
 018F                   .dbline 40
 018F           ;       LCD_PrString(theStr4);         //Tulosta teksti 4
 018F 62D000            mov REG[0xd0],>__r0
 0192 5A00              mov [__r1],X
 0194 060002            add [__r1],2
 0197 10                push X
 0198 5007              mov A,7
 019A 08                push A
 019B 5100              mov A,[__r1]
 019D 5C                mov X,A
 019E 18                pop A
 019F 7C0000            xcall _LCD_PrString
 01A2                   .dbline 43
 01A2           ;       
 01A2           ;       //Taaksepäin
 01A2           ;       VMT_Switch(1);         // Turn on VasenMoottoriTaakse
 01A2 5001              mov A,1
 01A4 7C0000            xcall _VMT_Switch
 01A7                   .dbline 44
 01A7           ;       OMT_Switch(1);         // Turn on OikeaMoottoriTaakse
 01A7 5001              mov A,1
 01A9 7C0000            xcall _OMT_Switch
 01AC                   .dbline 46
 01AC           ;       
 01AC           ;       LCD_Position(1,3);
 01AC 5703              mov X,3
 01AE 5001              mov A,1
 01B0 7C0000            xcall _LCD_Position
 01B3 20                pop X
 01B4                   .dbline 47
 01B4           ;       LCD_PrString(theStr3);         //Tulosta teksti 3
 01B4 62D000            mov REG[0xd0],>__r0
 01B7 5A00              mov [__r1],X
 01B9 060026            add [__r1],38
 01BC 10                push X
 01BD 5007              mov A,7
 01BF 08                push A
 01C0 5100              mov A,[__r1]
 01C2 5C                mov X,A
 01C3 18                pop A
 01C4 7C0000            xcall _LCD_PrString
 01C7 20                pop X
 01C8                   .dbline 49
 01C8           ;       
 01C8           ;       for (i=0;i<30000;i++);
 01C8 560100            mov [X+1],0
 01CB 560000            mov [X+0],0
 01CE           L16:
 01CE                   .dbline 49
 01CE           L17:
 01CE                   .dbline 49
 01CE 7701              inc [X+1]
 01D0 0F0000            adc [X+0],0
 01D3                   .dbline 49
 01D3 5201              mov A,[X+1]
 01D5 1130              sub A,48
 01D7 5200              mov A,[X+0]
 01D9 3180              xor A,-128
 01DB 19F5              sbb A,(117 ^ 0x80)
 01DD CFF0              jc L16
 01DF           X9:
 01DF                   .dbline 50
 01DF           ;       VMT_Switch(0);             // Turn off VasenMoottoriTaakse
 01DF 10                push X
 01E0 5000              mov A,0
 01E2 7C0000            xcall _VMT_Switch
 01E5                   .dbline 51
 01E5           ;       OMT_Switch(0);             // Turn off OikeaMoottoriTaakse
 01E5 5000              mov A,0
 01E7 7C0000            xcall _OMT_Switch
 01EA                   .dbline 53
 01EA           ; 
 01EA           ;       LCD_Position(1,3);
 01EA 5703              mov X,3
 01EC 5001              mov A,1
 01EE 7C0000            xcall _LCD_Position
 01F1 20                pop X
 01F2                   .dbline 54
 01F2           ;       LCD_PrString(theStr4);         //Tulosta teksti 4
 01F2 62D000            mov REG[0xd0],>__r0
 01F5 5A00              mov [__r1],X
 01F7 060002            add [__r1],2
 01FA 10                push X
 01FB 5007              mov A,7
 01FD 08                push A
 01FE 5100              mov A,[__r1]
 0200 5C                mov X,A
 0201 18                pop A
 0202 7C0000            xcall _LCD_PrString
 0205 20                pop X
 0206                   .dbline 58
 0206           ;       
 0206           ;       //Käännökset
 0206           ;               
 0206           ;       for (i=0;i<30000;i++);
 0206 560100            mov [X+1],0
 0209 560000            mov [X+0],0
 020C           L20:
 020C                   .dbline 58
 020C           L21:
 020C                   .dbline 58
 020C 7701              inc [X+1]
 020E 0F0000            adc [X+0],0
 0211                   .dbline 58
 0211 5201              mov A,[X+1]
 0213 1130              sub A,48
 0215 5200              mov A,[X+0]
 0217 3180              xor A,-128
 0219 19F5              sbb A,(117 ^ 0x80)
 021B CFF0              jc L20
 021D           X10:
 021D                   .dbline 60
 021D           ;       //Oikealle              //Varmuudeksi turn off ei käytettäville suunnille
 021D           ;       OME_Switch(0);            // Turn off OikeaMoottoriEteen
 021D 10                push X
 021E 5000              mov A,0
 0220 7C0000            xcall _OME_Switch
 0223                   .dbline 61
 0223           ;       VMT_Switch(0);             // Turn off VasenMoottoriTaakse
 0223 5000              mov A,0
 0225 7C0000            xcall _VMT_Switch
 0228                   .dbline 62
 0228           ;       VME_Switch(1);            // Turn on VasenMoottoriEteen
 0228 5001              mov A,1
 022A 7C0000            xcall _VME_Switch
 022D                   .dbline 63
 022D           ;       OMT_Switch(1);             // Turn on OikeaMoottoriTaakse
 022D 5001              mov A,1
 022F 7C0000            xcall _OMT_Switch
 0232                   .dbline 65
 0232           ;       
 0232           ;       LCD_Position(1,3);
 0232 5703              mov X,3
 0234 5001              mov A,1
 0236 7C0000            xcall _LCD_Position
 0239 20                pop X
 023A                   .dbline 66
 023A           ;       LCD_PrString(theStr5);         //Tulosta teksti 5
 023A 62D000            mov REG[0xd0],>__r0
 023D 5A00              mov [__r1],X
 023F 060032            add [__r1],50
 0242 10                push X
 0243 5007              mov A,7
 0245 08                push A
 0246 5100              mov A,[__r1]
 0248 5C                mov X,A
 0249 18                pop A
 024A 7C0000            xcall _LCD_PrString
 024D 20                pop X
 024E                   .dbline 69
 024E           ;       
 024E           ;               //Ajastus 90° käännökseen, kokeilemalla...
 024E           ;       for (i=0;i<30000;i++);
 024E 560100            mov [X+1],0
 0251 560000            mov [X+0],0
 0254           L24:
 0254                   .dbline 69
 0254           L25:
 0254                   .dbline 69
 0254 7701              inc [X+1]
 0256 0F0000            adc [X+0],0
 0259                   .dbline 69
 0259 5201              mov A,[X+1]
 025B 1130              sub A,48
 025D 5200              mov A,[X+0]
 025F 3180              xor A,-128
 0261 19F5              sbb A,(117 ^ 0x80)
 0263 CFF0              jc L24
 0265           X11:
 0265                   .dbline 70
 0265           ;       VME_Switch(0);            // Turn off VasenMoottoriEteen
 0265 10                push X
 0266 5000              mov A,0
 0268 7C0000            xcall _VME_Switch
 026B                   .dbline 71
 026B           ;       OMT_Switch(0);             // Turn off OikeaMoottoriTaakse
 026B 5000              mov A,0
 026D 7C0000            xcall _OMT_Switch
 0270                   .dbline 73
 0270           ;       
 0270           ;       LCD_Position(1,3);
 0270 5703              mov X,3
 0272 5001              mov A,1
 0274 7C0000            xcall _LCD_Position
 0277 20                pop X
 0278                   .dbline 74
 0278           ;       LCD_PrString(theStr4);         //Tulosta teksti 4
 0278 62D000            mov REG[0xd0],>__r0
 027B 5A00              mov [__r1],X
 027D 060002            add [__r1],2
 0280 10                push X
 0281 5007              mov A,7
 0283 08                push A
 0284 5100              mov A,[__r1]
 0286 5C                mov X,A
 0287 18                pop A
 0288 7C0000            xcall _LCD_PrString
 028B 20                pop X
 028C                   .dbline 76
 028C           ;       
 028C           ;       for (i=0;i<30000;i++);
 028C 560100            mov [X+1],0
 028F 560000            mov [X+0],0
 0292           L28:
 0292                   .dbline 76
 0292           L29:
 0292                   .dbline 76
 0292 7701              inc [X+1]
 0294 0F0000            adc [X+0],0
 0297                   .dbline 76
 0297 5201              mov A,[X+1]
 0299 1130              sub A,48
 029B 5200              mov A,[X+0]
 029D 3180              xor A,-128
 029F 19F5              sbb A,(117 ^ 0x80)
 02A1 CFF0              jc L28
 02A3           X12:
 02A3                   .dbline 78
 02A3           ;       //Vasemmalle    //Varmuudeksi turn off ei käytettäville suunnille
 02A3           ;       VME_Switch(0);            // Turn off VasenMoottoriEteen
 02A3 10                push X
 02A4 5000              mov A,0
 02A6 7C0000            xcall _VME_Switch
 02A9                   .dbline 79
 02A9           ;       OMT_Switch(0);             // Turn off OikeaMoottoriTaakse
 02A9 5000              mov A,0
 02AB 7C0000            xcall _OMT_Switch
 02AE                   .dbline 80
 02AE           ;       OME_Switch(1);            // Turn on OikeaMoottoriEteen
 02AE 5001              mov A,1
 02B0 7C0000            xcall _OME_Switch
 02B3                   .dbline 81
 02B3           ;       VMT_Switch(1);             // Turn on VasenMoottoriTaakse
 02B3 5001              mov A,1
 02B5 7C0000            xcall _VMT_Switch
 02B8                   .dbline 83
 02B8           ;       
 02B8           ;       LCD_Position(1,3);
 02B8 5703              mov X,3
 02BA 5001              mov A,1
 02BC 7C0000            xcall _LCD_Position
 02BF 20                pop X
 02C0                   .dbline 84
 02C0           ;       LCD_PrString(theStr6);         //Tulosta teksti 6
 02C0 62D000            mov REG[0xd0],>__r0
 02C3 5A00              mov [__r1],X
 02C5 06003E            add [__r1],62
 02C8 10                push X
 02C9 5007              mov A,7
 02CB 08                push A
 02CC 5100              mov A,[__r1]
 02CE 5C                mov X,A
 02CF 18                pop A
 02D0 7C0000            xcall _LCD_PrString
 02D3 20                pop X
 02D4                   .dbline 87
 02D4           ;       
 02D4           ;               //Ajastus 90° käännökseen, kokeilemalla...
 02D4           ;       for (i=0;i<30000;i++);
 02D4 560100            mov [X+1],0
 02D7 560000            mov [X+0],0
 02DA           L32:
 02DA                   .dbline 87
 02DA           L33:
 02DA                   .dbline 87
 02DA 7701              inc [X+1]
 02DC 0F0000            adc [X+0],0
 02DF                   .dbline 87
 02DF 5201              mov A,[X+1]
 02E1 1130              sub A,48
 02E3 5200              mov A,[X+0]
 02E5 3180              xor A,-128
 02E7 19F5              sbb A,(117 ^ 0x80)
 02E9 CFF0              jc L32
 02EB           X13:
 02EB                   .dbline 88
 02EB           ;       OME_Switch(0);            // Turn off OikeaMoottoriEteen
 02EB 10                push X
 02EC 5000              mov A,0
 02EE 7C0000            xcall _OME_Switch
 02F1                   .dbline 89
 02F1           ;       VMT_Switch(0);             // Turn off VasenMoottoriTaakse
 02F1 5000              mov A,0
 02F3 7C0000            xcall _VMT_Switch
 02F6                   .dbline 91
 02F6           ;       
 02F6           ;       LCD_Position(1,3);
 02F6 5703              mov X,3
 02F8 5001              mov A,1
 02FA 7C0000            xcall _LCD_Position
 02FD 20                pop X
 02FE                   .dbline 92
 02FE           ;       LCD_PrString(theStr4);         //Tulosta teksti 4
 02FE 62D000            mov REG[0xd0],>__r0
 0301 5A00              mov [__r1],X
 0303 060002            add [__r1],2
 0306 10                push X
 0307 5007              mov A,7
 0309 08                push A
 030A 5100              mov A,[__r1]
 030C 5C                mov X,A
 030D 18                pop A
 030E 7C0000            xcall _LCD_PrString
 0311 20                pop X
 0312           L36:
 0312                   .dbline 98
 0312           ;       
 0312           ; 
 0312           ;       
 0312           ; 
 0312           ;       //ÄLÄ POISTA!!!
 0312           ;       while (1);              //ESTÄÄ MAIN:ISTA POISTUMISEN TÄRKEÄ!!! ÄLÄ POISTA!!!
 0312           L37:
 0312                   .dbline 98
 0312 8FFF              xjmp L36
 0314           X0:
 0314                   .dbline -2
 0314           L1:
 0314 38B6              add SP,-74
 0316 20                pop X
 0317                   .dbline 0 ; func end
 0317 8FFF              jmp .
 0319                   .dbsym l theStr6 62 A[12:12]c
 0319                   .dbsym l theStr5 50 A[12:12]c
 0319                   .dbsym l theStr3 38 A[12:12]c
 0319                   .dbsym l theStr2 26 A[12:12]c
 0319                   .dbsym l theStr1 14 A[12:12]c
 0319                   .dbsym l theStr4 2 A[12:12]c
 0319                   .dbsym l i 0 I
 0319                   .dbend
